target datalayout = "e-m:e-p270:32:32-p271:32:32-p272:64:64-i64:64-i128:128-f80:128-n8:16:32:64-S128"
target triple = "x86_64-pc-linux-gnu"

%"class.cv::Mat" = type { i32, i32, i32, i32, ptr, ptr, ptr, ptr, ptr, ptr, %"struct.cv::MatSize", %"struct.cv::MatStep" }
%"struct.cv::MatSize" = type { ptr }
%"struct.cv::MatStep" = type { ptr, [2 x i64] }
%"class.cv::Size_" = type { i32, i32 }
%"class.cv::Range" = type { i32, i32 }
%"class.cv::ParallelLoopBody" = type { ptr }
%"class.cv::bgsegm::(anonymous namespace)::ParallelFromLocalSVDValues" = type { %"class.cv::ParallelLoopBody", %"class.cv::Size_", ptr, ptr, ptr }
%"class.cv::Point_.13" = type { i32, i32 }

; Function Attrs: inlinehint mustprogress nounwind uwtable
define linkonce_odr noundef float @_ZSt3absf(float noundef %0) #8 comdat {
  %2 = alloca float, align 4
  store float %0, ptr %2, align 4, !tbaa !15
  %3 = load float, ptr %2, align 4, !tbaa !15
  %4 = call float @llvm.fabs.f32(float %3)
  ret float %4
}

; Function Attrs: inlinehint mustprogress nounwind uwtable
define linkonce_odr hidden noundef nonnull align 4 dereferenceable(4) ptr @_ZNK2cv3Mat2atIfEERKT_ii(ptr noundef nonnull align 8 dereferenceable(96) %0, i32 noundef %1, i32 noundef %2) #8 comdat align 2 {
  %4 = alloca ptr, align 8
  %5 = alloca i32, align 4
  %6 = alloca i32, align 4
  store ptr %0, ptr %4, align 8, !tbaa !8
  store i32 %1, ptr %5, align 4, !tbaa !11
  store i32 %2, ptr %6, align 4, !tbaa !11
  %7 = load ptr, ptr %4, align 8
  %8 = getelementptr inbounds nuw %"class.cv::Mat", ptr %7, i32 0, i32 4
  %9 = load ptr, ptr %8, align 8, !tbaa !45
  %10 = getelementptr inbounds nuw %"class.cv::Mat", ptr %7, i32 0, i32 11
  %11 = getelementptr inbounds nuw %"struct.cv::MatStep", ptr %10, i32 0, i32 0
  %12 = load ptr, ptr %11, align 8, !tbaa !52
  %13 = getelementptr inbounds i64, ptr %12, i64 0
  %14 = load i64, ptr %13, align 8, !tbaa !53
  %15 = load i32, ptr %5, align 4, !tbaa !11
  %16 = sext i32 %15 to i64
  %17 = mul i64 %14, %16
  %18 = getelementptr inbounds nuw i8, ptr %9, i64 %17
  %19 = load i32, ptr %6, align 4, !tbaa !11
  %20 = sext i32 %19 to i64
  %21 = getelementptr inbounds float, ptr %18, i64 %20
  ret ptr %21
}

; Function Attrs: inlinehint mustprogress nounwind uwtable
define linkonce_odr hidden noundef nonnull align 4 dereferenceable(4) ptr @_ZN2cv3Mat2atIiEERT_ii(ptr noundef nonnull align 8 dereferenceable(96) %0, i32 noundef %1, i32 noundef %2) #8 comdat align 2 {
  %4 = alloca ptr, align 8
  %5 = alloca i32, align 4
  %6 = alloca i32, align 4
  store ptr %0, ptr %4, align 8, !tbaa !8
  store i32 %1, ptr %5, align 4, !tbaa !11
  store i32 %2, ptr %6, align 4, !tbaa !11
  %7 = load ptr, ptr %4, align 8
  %8 = getelementptr inbounds nuw %"class.cv::Mat", ptr %7, i32 0, i32 4
  %9 = load ptr, ptr %8, align 8, !tbaa !45
  %10 = getelementptr inbounds nuw %"class.cv::Mat", ptr %7, i32 0, i32 11
  %11 = getelementptr inbounds nuw %"struct.cv::MatStep", ptr %10, i32 0, i32 0
  %12 = load ptr, ptr %11, align 8, !tbaa !52
  %13 = getelementptr inbounds i64, ptr %12, i64 0
  %14 = load i64, ptr %13, align 8, !tbaa !53
  %15 = load i32, ptr %5, align 4, !tbaa !11
  %16 = sext i32 %15 to i64
  %17 = mul i64 %14, %16
  %18 = getelementptr inbounds nuw i8, ptr %9, i64 %17
  %19 = load i32, ptr %6, align 4, !tbaa !11
  %20 = sext i32 %19 to i64
  %21 = getelementptr inbounds i32, ptr %18, i64 %20
  ret ptr %21
}

; Function Attrs: mustprogress uwtable
define internal void @_ZNK2cv6bgsegm12_GLOBAL__N_126ParallelFromLocalSVDValuesclERKNS_5RangeE(ptr noundef nonnull align 8 dereferenceable(40) %0, ptr noundef nonnull align 4 dereferenceable(8) %1) unnamed_addr #4 align 2 {
  %3 = alloca ptr, align 8
  %4 = alloca ptr, align 8
  %5 = alloca i32, align 4
  %6 = alloca i32, align 4
  %7 = alloca i32, align 4
  %8 = alloca i32, align 4
  %9 = alloca ptr, align 8
  %10 = alloca float, align 4
  %11 = alloca i32, align 4
  %12 = alloca i32, align 4
  %13 = alloca i32, align 4
  store ptr %0, ptr %3, align 8, !tbaa !57
  store ptr %1, ptr %4, align 8, !tbaa !34
  %14 = load ptr, ptr %3, align 8
  call void @llvm.lifetime.start.p0(i64 4, ptr %5) #3
  %15 = load ptr, ptr %4, align 8, !tbaa !34
  %16 = getelementptr inbounds nuw %"class.cv::Range", ptr %15, i32 0, i32 0
  %17 = load i32, ptr %16, align 4, !tbaa !36
  store i32 %17, ptr %5, align 4, !tbaa !11
  br label %18

18:                                               ; preds = %110, %2
  %19 = load i32, ptr %5, align 4, !tbaa !11
  %20 = load ptr, ptr %4, align 8, !tbaa !34
  %21 = getelementptr inbounds nuw %"class.cv::Range", ptr %20, i32 0, i32 1
  %22 = load i32, ptr %21, align 4, !tbaa !38
  %23 = icmp slt i32 %19, %22
  br i1 %23, label %25, label %24

24:                                               ; preds = %18
  store i32 2, ptr %6, align 4
  call void @llvm.lifetime.end.p0(i64 4, ptr %5) #3
  br label %113

25:                                               ; preds = %18
  call void @llvm.lifetime.start.p0(i64 4, ptr %7) #3
  %26 = load i32, ptr %5, align 4, !tbaa !11
  %27 = getelementptr inbounds nuw %"class.cv::bgsegm::(anonymous namespace)::ParallelFromLocalSVDValues", ptr %14, i32 0, i32 1
  %28 = getelementptr inbounds nuw %"class.cv::Size_", ptr %27, i32 0, i32 0
  %29 = load i32, ptr %28, align 8, !tbaa !268
  %30 = sdiv i32 %26, %29
  store i32 %30, ptr %7, align 4, !tbaa !11
  call void @llvm.lifetime.start.p0(i64 4, ptr %8) #3
  %31 = load i32, ptr %5, align 4, !tbaa !11
  %32 = getelementptr inbounds nuw %"class.cv::bgsegm::(anonymous namespace)::ParallelFromLocalSVDValues", ptr %14, i32 0, i32 1
  %33 = getelementptr inbounds nuw %"class.cv::Size_", ptr %32, i32 0, i32 0
  %34 = load i32, ptr %33, align 8, !tbaa !268
  %35 = srem i32 %31, %34
  store i32 %35, ptr %8, align 4, !tbaa !11
  call void @llvm.lifetime.start.p0(i64 8, ptr %9) #3
  %36 = getelementptr inbounds nuw %"class.cv::bgsegm::(anonymous namespace)::ParallelFromLocalSVDValues", ptr %14, i32 0, i32 2
  %37 = load ptr, ptr %36, align 8, !tbaa !269
  %38 = load i32, ptr %7, align 4, !tbaa !11
  %39 = load i32, ptr %8, align 4, !tbaa !11
  %40 = call noundef nonnull align 4 dereferenceable(4) ptr @_ZN2cv3Mat2atIiEERT_ii(ptr noundef nonnull align 8 dereferenceable(96) %37, i32 noundef %38, i32 noundef %39)
  store ptr %40, ptr %9, align 8, !tbaa !124
  %41 = load ptr, ptr %9, align 8, !tbaa !124
  store i32 0, ptr %41, align 4, !tbaa !11
  call void @llvm.lifetime.start.p0(i64 4, ptr %10) #3
  %42 = getelementptr inbounds nuw %"class.cv::bgsegm::(anonymous namespace)::ParallelFromLocalSVDValues", ptr %14, i32 0, i32 3
  %43 = load ptr, ptr %42, align 8, !tbaa !270
  %44 = load i32, ptr %7, align 4, !tbaa !11
  %45 = load i32, ptr %8, align 4, !tbaa !11
  %46 = call noundef nonnull align 4 dereferenceable(4) ptr @_ZNK2cv3Mat2atIfEERKT_ii(ptr noundef nonnull align 8 dereferenceable(96) %43, i32 noundef %44, i32 noundef %45)
  %47 = load float, ptr %46, align 4, !tbaa !15
  store float %47, ptr %10, align 4, !tbaa !15
  call void @llvm.lifetime.start.p0(i64 4, ptr %11) #3
  store i32 0, ptr %11, align 4, !tbaa !11
  br label %48

48:                                               ; preds = %106, %25
  %49 = load i32, ptr %11, align 4, !tbaa !11
  %50 = icmp slt i32 %49, 32
  br i1 %50, label %52, label %51

51:                                               ; preds = %48
  store i32 5, ptr %6, align 4
  call void @llvm.lifetime.end.p0(i64 4, ptr %11) #3
  br label %109

52:                                               ; preds = %48
  call void @llvm.lifetime.start.p0(i64 4, ptr %12) #3
  %53 = load i32, ptr %7, align 4, !tbaa !11
  %54 = getelementptr inbounds nuw %"class.cv::bgsegm::(anonymous namespace)::ParallelFromLocalSVDValues", ptr %14, i32 0, i32 4
  %55 = load ptr, ptr %54, align 8, !tbaa !59
  %56 = load i32, ptr %11, align 4, !tbaa !11
  %57 = sext i32 %56 to i64
  %58 = getelementptr inbounds %"class.cv::Point_.13", ptr %55, i64 %57
  %59 = getelementptr inbounds nuw %"class.cv::Point_.13", ptr %58, i32 0, i32 1
  %60 = load i32, ptr %59, align 4, !tbaa !159
  %61 = add nsw i32 %53, %60
  store i32 %61, ptr %12, align 4, !tbaa !11
  call void @llvm.lifetime.start.p0(i64 4, ptr %13) #3
  %62 = load i32, ptr %8, align 4, !tbaa !11
  %63 = getelementptr inbounds nuw %"class.cv::bgsegm::(anonymous namespace)::ParallelFromLocalSVDValues", ptr %14, i32 0, i32 4
  %64 = load ptr, ptr %63, align 8, !tbaa !59
  %65 = load i32, ptr %11, align 4, !tbaa !11
  %66 = sext i32 %65 to i64
  %67 = getelementptr inbounds %"class.cv::Point_.13", ptr %64, i64 %66
  %68 = getelementptr inbounds nuw %"class.cv::Point_.13", ptr %67, i32 0, i32 0
  %69 = load i32, ptr %68, align 4, !tbaa !157
  %70 = add nsw i32 %62, %69
  store i32 %70, ptr %13, align 4, !tbaa !11
  %71 = load i32, ptr %12, align 4, !tbaa !11
  %72 = icmp sge i32 %71, 0
  br i1 %72, label %73, label %105

73:                                               ; preds = %52
  %74 = load i32, ptr %13, align 4, !tbaa !11
  %75 = icmp sge i32 %74, 0
  br i1 %75, label %76, label %105

76:                                               ; preds = %73
  %77 = load i32, ptr %12, align 4, !tbaa !11
  %78 = getelementptr inbounds nuw %"class.cv::bgsegm::(anonymous namespace)::ParallelFromLocalSVDValues", ptr %14, i32 0, i32 1
  %79 = getelementptr inbounds nuw %"class.cv::Size_", ptr %78, i32 0, i32 1
  %80 = load i32, ptr %79, align 4, !tbaa !271
  %81 = icmp slt i32 %77, %80
  br i1 %81, label %82, label %105

82:                                               ; preds = %76
  %83 = load i32, ptr %13, align 4, !tbaa !11
  %84 = getelementptr inbounds nuw %"class.cv::bgsegm::(anonymous namespace)::ParallelFromLocalSVDValues", ptr %14, i32 0, i32 1
  %85 = getelementptr inbounds nuw %"class.cv::Size_", ptr %84, i32 0, i32 0
  %86 = load i32, ptr %85, align 8, !tbaa !268
  %87 = icmp slt i32 %83, %86
  br i1 %87, label %88, label %105

88:                                               ; preds = %82
  %89 = getelementptr inbounds nuw %"class.cv::bgsegm::(anonymous namespace)::ParallelFromLocalSVDValues", ptr %14, i32 0, i32 3
  %90 = load ptr, ptr %89, align 8, !tbaa !270
  %91 = load i32, ptr %12, align 4, !tbaa !11
  %92 = load i32, ptr %13, align 4, !tbaa !11
  %93 = call noundef nonnull align 4 dereferenceable(4) ptr @_ZNK2cv3Mat2atIfEERKT_ii(ptr noundef nonnull align 8 dereferenceable(96) %90, i32 noundef %91, i32 noundef %92)
  %94 = load float, ptr %93, align 4, !tbaa !15
  %95 = load float, ptr %10, align 4, !tbaa !15
  %96 = fsub float %94, %95
  %97 = call noundef float @_ZSt3absf(float noundef %96)
  %98 = fcmp ogt float %97, 0x3FA99999A0000000
  br i1 %98, label %99, label %105

99:                                               ; preds = %88
  %100 = load i32, ptr %11, align 4, !tbaa !11
  %101 = shl i32 1, %100
  %102 = load ptr, ptr %9, align 8, !tbaa !124
  %103 = load i32, ptr %102, align 4, !tbaa !11
  %104 = or i32 %103, %101
  store i32 %104, ptr %102, align 4, !tbaa !11
  br label %105

105:                                              ; preds = %99, %88, %82, %76, %73, %52
  call void @llvm.lifetime.end.p0(i64 4, ptr %13) #3
  call void @llvm.lifetime.end.p0(i64 4, ptr %12) #3
  br label %106

106:                                              ; preds = %105
  %107 = load i32, ptr %11, align 4, !tbaa !11
  %108 = add nsw i32 %107, 1
  store i32 %108, ptr %11, align 4, !tbaa !11
  br label %48, !llvm.loop !272

109:                                              ; preds = %51
  call void @llvm.lifetime.end.p0(i64 4, ptr %10) #3
  call void @llvm.lifetime.end.p0(i64 8, ptr %9) #3
  call void @llvm.lifetime.end.p0(i64 4, ptr %8) #3
  call void @llvm.lifetime.end.p0(i64 4, ptr %7) #3
  br label %110

110:                                              ; preds = %109
  %111 = load i32, ptr %5, align 4, !tbaa !11
  %112 = add nsw i32 %111, 1
  store i32 %112, ptr %5, align 4, !tbaa !11
  br label %18, !llvm.loop !273

113:                                              ; preds = %24
  ret void
}