; Function Attrs: mustprogress nofree norecurse nosync nounwind memory(readwrite, inaccessiblemem: none) uwtable
define internal void @_ZNK2cv6bgsegm12_GLOBAL__N_126ParallelFromLocalSVDValuesclERKNS_5RangeE(ptr noundef nonnull readonly align 8 captures(none) dereferenceable(40) %0, ptr noundef nonnull readonly align 4 captures(none) dereferenceable(8) %1) unnamed_addr #16 align 2 {
  %3 = load i32, ptr %1, align 4, !tbaa !20
  %4 = getelementptr inbounds nuw i8, ptr %1, i64 4
  %5 = load i32, ptr %4, align 4, !tbaa !22
  %6 = icmp slt i32 %3, %5
  br i1 %6, label %.lr.ph, label %._crit_edge

.lr.ph:                                           ; preds = %2
  %7 = getelementptr inbounds nuw i8, ptr %0, i64 8
  %8 = getelementptr inbounds nuw i8, ptr %0, i64 16
  %9 = load ptr, ptr %8, align 8, !tbaa !314
  %10 = getelementptr inbounds nuw i8, ptr %9, i64 16
  %11 = load ptr, ptr %10, align 8, !tbaa !27
  %12 = getelementptr inbounds nuw i8, ptr %9, i64 72
  %13 = load ptr, ptr %12, align 8, !tbaa !34
  %14 = load i64, ptr %13, align 8, !tbaa !35
  %15 = getelementptr inbounds nuw i8, ptr %0, i64 24
  %16 = load ptr, ptr %15, align 8, !tbaa !315
  %17 = getelementptr inbounds nuw i8, ptr %16, i64 16
  %18 = load ptr, ptr %17, align 8, !tbaa !27
  %19 = getelementptr inbounds nuw i8, ptr %16, i64 72
  %20 = load ptr, ptr %19, align 8, !tbaa !34
  %21 = load i64, ptr %20, align 8, !tbaa !35
  %22 = getelementptr inbounds nuw i8, ptr %0, i64 32
  %23 = load ptr, ptr %22, align 8, !tbaa !45
  %24 = getelementptr inbounds nuw i8, ptr %0, i64 12
  br label %25

._crit_edge:                                      ; preds = %38, %2
  ret void

25:                                               ; preds = %.lr.ph, %38
  %.036 = phi i32 [ %3, %.lr.ph ], [ %39, %38 ]
  %26 = load i32, ptr %7, align 8, !tbaa !316
  %27 = sdiv i32 %.036, %26
  %28 = srem i32 %.036, %26
  %29 = sext i32 %27 to i64
  %30 = mul i64 %14, %29
  %31 = getelementptr inbounds nuw i8, ptr %11, i64 %30
  %32 = sext i32 %28 to i64
  %33 = getelementptr inbounds i32, ptr %31, i64 %32
  store i32 0, ptr %33, align 4, !tbaa !9
  %34 = mul i64 %21, %29
  %35 = getelementptr inbounds nuw i8, ptr %18, i64 %34
  %36 = getelementptr inbounds float, ptr %35, i64 %32
  %37 = load float, ptr %36, align 4, !tbaa !37
  br label %42

38:                                               ; preds = %70
  %39 = add nsw i32 %.036, 1
  %40 = load i32, ptr %4, align 4, !tbaa !22
  %41 = icmp slt i32 %39, %40
  br i1 %41, label %25, label %._crit_edge, !llvm.loop !317

42:                                               ; preds = %25, %70
  %43 = phi i32 [ 0, %25 ], [ %71, %70 ]
  %indvars.iv = phi i64 [ 0, %25 ], [ %indvars.iv.next, %70 ]
  %44 = getelementptr inbounds nuw %"class.cv::Point_.13", ptr %23, i64 %indvars.iv
  %45 = getelementptr inbounds nuw i8, ptr %44, i64 4
  %46 = load i32, ptr %45, align 4, !tbaa !318
  %47 = add nsw i32 %46, %27
  %48 = load i32, ptr %44, align 4, !tbaa !320
  %49 = add nsw i32 %48, %28
  %50 = icmp sgt i32 %47, -1
  %51 = icmp sgt i32 %49, -1
  %or.cond = select i1 %50, i1 %51, i1 false
  %52 = load i32, ptr %24, align 4
  %53 = icmp slt i32 %47, %52
  %or.cond32 = select i1 %or.cond, i1 %53, i1 false
  %54 = load i32, ptr %7, align 8
  %55 = icmp slt i32 %49, %54
  %or.cond34 = select i1 %or.cond32, i1 %55, i1 false
  br i1 %or.cond34, label %56, label %70

56:                                               ; preds = %42
  %57 = zext nneg i32 %47 to i64
  %58 = mul i64 %21, %57
  %59 = getelementptr inbounds nuw i8, ptr %18, i64 %58
  %60 = zext nneg i32 %49 to i64
  %61 = getelementptr inbounds nuw float, ptr %59, i64 %60
  %62 = load float, ptr %61, align 4, !tbaa !37
  %63 = fsub float %62, %37
  %64 = tail call noundef float @llvm.fabs.f32(float %63)
  %65 = fcmp ogt float %64, 0x3FA99999A0000000
  br i1 %65, label %66, label %70

66:                                               ; preds = %56
  %67 = trunc nuw nsw i64 %indvars.iv to i32
  %68 = shl nuw i32 1, %67
  %69 = or i32 %43, %68
  store i32 %69, ptr %33, align 4, !tbaa !9
  br label %70

70:                                               ; preds = %66, %56, %42
  %71 = phi i32 [ %69, %66 ], [ %43, %56 ], [ %43, %42 ]
  %indvars.iv.next = add nuw nsw i64 %indvars.iv, 1
  %exitcond.not = icmp eq i64 %indvars.iv.next, 32
  br i1 %exitcond.not, label %38, label %42, !llvm.loop !321
}